target datalayout = "e-m:e-p270:32:32-p271:32:32-p272:64:64-i64:64-i128:128-f80:128-n8:16:32:64-S128"
target triple = "x86_64-unknown-linux-gnu"

%"class.rocksdb::BlockBasedTableBuilder" = type { %"class.rocksdb::TableBuilder", ptr, i64 }
%"class.rocksdb::TableBuilder" = type { ptr }

; Function Attrs: mustprogress nounwind uwtable
define linkonce_odr void @_ZN7rocksdb12TableBuilderD2Ev(ptr noundef nonnull align 8 dereferenceable(8) %this) unnamed_addr #1 comdat align 2 {
entry:
  %this.addr = alloca ptr, align 8
  store ptr %this, ptr %this.addr, align 8
  ret void
}

; Function Attrs: mustprogress nounwind uwtable
define void @_ZN7rocksdb22BlockBasedTableBuilderD2Ev(ptr noundef nonnull align 8 dereferenceable(24) %this) unnamed_addr #1 align 2 {
entry:
  %this.addr = alloca ptr, align 8
  store ptr %this, ptr %this.addr, align 8
  %this1 = load ptr, ptr %this.addr, align 8
  store ptr getelementptr inbounds ({ [19 x ptr] }, ptr @_ZTVN7rocksdb22BlockBasedTableBuilderE, i32 0, i32 0, i32 2), ptr %this1, align 8
  %rep_ = getelementptr inbounds %"class.rocksdb::BlockBasedTableBuilder", ptr %this1, i32 0, i32 1
  %0 = load ptr, ptr %rep_, align 8
  %isnull = icmp eq ptr %0, null
  br i1 %isnull, label %delete.end, label %delete.notnull

delete.notnull:                                   ; preds = %entry
  call void @_ZN7rocksdb22BlockBasedTableBuilder3RepD2Ev(ptr noundef nonnull align 8 dereferenceable(2880) %0) #3
  call void @_ZdlPv(ptr noundef %0) #19
  br label %delete.end

delete.end:                                       ; preds = %delete.notnull, %entry
  call void @_ZN7rocksdb12TableBuilderD2Ev(ptr noundef nonnull align 8 dereferenceable(8) %this1) #3
  ret void
}