; Function Attrs: mustprogress nounwind uwtable
define void @_ZN7rocksdb22BlockBasedTableBuilderD2Ev(ptr nocapture noundef nonnull align 8 dereferenceable(24) %this) unnamed_addr #1 align 2 {
entry:
  store ptr getelementptr inbounds ({ [19 x ptr] }, ptr @_ZTVN7rocksdb22BlockBasedTableBuilderE, i64 0, i32 0, i64 2), ptr %this, align 8
  %rep_ = getelementptr inbounds i8, ptr %this, i64 8
  %0 = load ptr, ptr %rep_, align 8
  %isnull = icmp eq ptr %0, null
  br i1 %isnull, label %delete.end, label %delete.notnull

delete.notnull:                                   ; preds = %entry
  tail call void @_ZN7rocksdb22BlockBasedTableBuilder3RepD2Ev(ptr noundef nonnull align 8 dereferenceable(2880) %0) #24
  tail call void @_ZdlPv(ptr noundef nonnull %0) #23
  br label %delete.end

delete.end:                                       ; preds = %delete.notnull, %entry
  ret void
}